target datalayout = "e-m:e-p270:32:32-p271:32:32-p272:64:64-i64:64-i128:128-f80:128-n8:16:32:64-S128"
target triple = "x86_64-pc-linux-gnu"

@mmap_probe.hint_addr = internal global i64 0, align 8

; Function Attrs: nounwind uwtable
define internal ptr @mmap_probe(ptr noundef %0, i64 noundef %1) #0 {
  %3 = alloca ptr, align 8
  %4 = alloca ptr, align 8
  %5 = alloca i64, align 8
  %6 = alloca i32, align 4
  %7 = alloca i32, align 4
  %8 = alloca ptr, align 8
  %9 = alloca i64, align 8
  %10 = alloca i32, align 4
  store ptr %0, ptr %4, align 8, !tbaa !4
  store i64 %1, ptr %5, align 8, !tbaa !9
  call void @llvm.lifetime.start.p0(i64 4, ptr %6) #10
  %11 = call ptr @__errno_location() #11
  %12 = load i32, ptr %11, align 4, !tbaa !26
  store i32 %12, ptr %6, align 4, !tbaa !26
  call void @llvm.lifetime.start.p0(i64 4, ptr %7) #10
  store i32 0, ptr %7, align 4, !tbaa !26
  br label %13

13:                                               ; preds = %89, %2
  %14 = load i32, ptr %7, align 4, !tbaa !26
  %15 = icmp slt i32 %14, 30
  br i1 %15, label %16, label %92

16:                                               ; preds = %13
  call void @llvm.lifetime.start.p0(i64 8, ptr %8) #10
  %17 = load i64, ptr @mmap_probe.hint_addr, align 8, !tbaa !9
  %18 = inttoptr i64 %17 to ptr
  %19 = load i64, ptr %5, align 8, !tbaa !9
  %20 = call ptr @mmap64(ptr noundef %18, i64 noundef %19, i32 noundef 3, i32 noundef 34, i32 noundef -1, i64 noundef 0) #10
  store ptr %20, ptr %8, align 8, !tbaa !27
  call void @llvm.lifetime.start.p0(i64 8, ptr %9) #10
  %21 = load ptr, ptr %8, align 8, !tbaa !27
  %22 = ptrtoint ptr %21 to i64
  store i64 %22, ptr %9, align 8, !tbaa !9
  %23 = load i64, ptr %9, align 8, !tbaa !9
  %24 = lshr i64 %23, 47
  %25 = icmp eq i64 %24, 0
  br i1 %25, label %26, label %42

26:                                               ; preds = %16
  %27 = load i64, ptr %9, align 8, !tbaa !9
  %28 = icmp uge i64 %27, 16384
  br i1 %28, label %29, label %42

29:                                               ; preds = %26
  %30 = load i64, ptr %9, align 8, !tbaa !9
  %31 = load i64, ptr %5, align 8, !tbaa !9
  %32 = add i64 %30, %31
  %33 = lshr i64 %32, 47
  %34 = icmp eq i64 %33, 0
  br i1 %34, label %35, label %42

35:                                               ; preds = %29
  %36 = load i64, ptr %9, align 8, !tbaa !9
  %37 = load i64, ptr %5, align 8, !tbaa !9
  %38 = add i64 %36, %37
  store i64 %38, ptr @mmap_probe.hint_addr, align 8, !tbaa !9
  %39 = load i32, ptr %6, align 4, !tbaa !26
  %40 = call ptr @__errno_location() #11
  store i32 %39, ptr %40, align 4, !tbaa !26
  %41 = load ptr, ptr %8, align 8, !tbaa !27
  store ptr %41, ptr %3, align 8
  store i32 1, ptr %10, align 4
  br label %86

42:                                               ; preds = %29, %26, %16
  %43 = load ptr, ptr %8, align 8, !tbaa !27
  %44 = icmp ne ptr %43, inttoptr (i64 -1 to ptr)
  br i1 %44, label %45, label %49

45:                                               ; preds = %42
  %46 = load ptr, ptr %8, align 8, !tbaa !27
  %47 = load i64, ptr %5, align 8, !tbaa !9
  %48 = call i32 @munmap(ptr noundef %46, i64 noundef %47) #10
  br label %55

49:                                               ; preds = %42
  %50 = call ptr @__errno_location() #11
  %51 = load i32, ptr %50, align 4, !tbaa !26
  %52 = icmp eq i32 %51, 12
  br i1 %52, label %53, label %54

53:                                               ; preds = %49
  store ptr inttoptr (i64 -1 to ptr), ptr %3, align 8
  store i32 1, ptr %10, align 4
  br label %86

54:                                               ; preds = %49
  br label %55

55:                                               ; preds = %54, %45
  %56 = load i64, ptr @mmap_probe.hint_addr, align 8, !tbaa !9
  %57 = icmp ne i64 %56, 0
  br i1 %57, label %58, label %77

58:                                               ; preds = %55
  %59 = load i32, ptr %7, align 4, !tbaa !26
  %60 = icmp slt i32 %59, 5
  br i1 %60, label %61, label %71

61:                                               ; preds = %58
  %62 = load i64, ptr @mmap_probe.hint_addr, align 8, !tbaa !9
  %63 = add i64 %62, 16777216
  store i64 %63, ptr @mmap_probe.hint_addr, align 8, !tbaa !9
  %64 = load i64, ptr @mmap_probe.hint_addr, align 8, !tbaa !9
  %65 = load i64, ptr %5, align 8, !tbaa !9
  %66 = add i64 %64, %65
  %67 = lshr i64 %66, 47
  %68 = icmp ne i64 %67, 0
  br i1 %68, label %69, label %70

69:                                               ; preds = %61
  store i64 0, ptr @mmap_probe.hint_addr, align 8, !tbaa !9
  br label %70

70:                                               ; preds = %69, %61
  store i32 4, ptr %10, align 4
  br label %86

71:                                               ; preds = %58
  %72 = load i32, ptr %7, align 4, !tbaa !26
  %73 = icmp eq i32 %72, 5
  br i1 %73, label %74, label %75

74:                                               ; preds = %71
  store i64 0, ptr @mmap_probe.hint_addr, align 8, !tbaa !9
  store i32 4, ptr %10, align 4
  br label %86

75:                                               ; preds = %71
  br label %76

76:                                               ; preds = %75
  br label %77

77:                                               ; preds = %76, %55
  br label %78

78:                                               ; preds = %82, %77
  %79 = load ptr, ptr %4, align 8, !tbaa !4
  %80 = call i64 @lj_prng_u64(ptr noundef %79)
  %81 = and i64 %80, 140737488351232
  store i64 %81, ptr @mmap_probe.hint_addr, align 8, !tbaa !9
  br label %82

82:                                               ; preds = %78
  %83 = load i64, ptr @mmap_probe.hint_addr, align 8, !tbaa !9
  %84 = icmp ult i64 %83, 16384
  br i1 %84, label %78, label %85, !llvm.loop !28

85:                                               ; preds = %82
  store i32 0, ptr %10, align 4
  br label %86

86:                                               ; preds = %85, %74, %70, %53, %35
  call void @llvm.lifetime.end.p0(i64 8, ptr %9) #10
  call void @llvm.lifetime.end.p0(i64 8, ptr %8) #10
  %87 = load i32, ptr %10, align 4
  switch i32 %87, label %95 [
    i32 0, label %88
    i32 4, label %89
  ]

88:                                               ; preds = %86
  br label %89

89:                                               ; preds = %88, %86
  %90 = load i32, ptr %7, align 4, !tbaa !26
  %91 = add nsw i32 %90, 1
  store i32 %91, ptr %7, align 4, !tbaa !26
  br label %13, !llvm.loop !30

92:                                               ; preds = %13
  %93 = load i32, ptr %6, align 4, !tbaa !26
  %94 = call ptr @__errno_location() #11
  store i32 %93, ptr %94, align 4, !tbaa !26
  store ptr inttoptr (i64 -1 to ptr), ptr %3, align 8
  store i32 1, ptr %10, align 4
  br label %95

95:                                               ; preds = %92, %86
  call void @llvm.lifetime.end.p0(i64 4, ptr %7) #10
  call void @llvm.lifetime.end.p0(i64 4, ptr %6) #10
  %96 = load ptr, ptr %3, align 8
  ret ptr %96
}